target datalayout = "e-m:e-p270:32:32-p271:32:32-p272:64:64-i64:64-i128:128-f80:128-n8:16:32:64-S128"
target triple = "x86_64-pc-linux-gnu"

%struct.H5HF_hdr_t = type { %struct.H5C_cache_entry_t, i32, i32, i8, i8, i8, i8, %struct.H5HF_dtable_t, i64, i64, i32, i64, i64, %struct.H5O_pline_t, i64, i32, i64, i64, i64, i64, i64, i64, i64, i64, i64, i64, i64, i32, ptr, i64, i8, i8, i8, ptr, i32, ptr, %struct.H5HF_block_iter_t, ptr, i64, i8, i8, i64, i8, i8, i8, i8 }
%struct.H5C_cache_entry_t = type { ptr, i64, i64, ptr, i8, ptr, i8, i8, i8, i8, i32, i8, i8, i8, i8, i8, i32, ptr, i32, i32, i32, i32, i32, i8, i8, ptr, ptr, ptr, ptr, ptr, ptr, i8, i32, i8, i64, ptr, i64, i64, i32, i8, i32, i32, i8, ptr, ptr, ptr }
%struct.H5HF_dtable_t = type { %struct.H5HF_dtable_cparam_t, i64, i32, i32, i32, i32, i32, i32, i32, i64, ptr, ptr, ptr, ptr }
%struct.H5HF_dtable_cparam_t = type { i32, i64, i64, i32, i32 }
%struct.H5O_pline_t = type { %struct.H5O_shared_t, i32, i64, i64, ptr }
%struct.H5O_shared_t = type { i32, ptr, i32, %union.anon }
%union.anon = type { %struct.H5O_mesg_loc_t }
%struct.H5O_mesg_loc_t = type { i32, i64 }
%struct.H5HF_block_iter_t = type { i8, ptr }

@.str = private unnamed_addr constant [103 x i8] c"generated/home/dtcxzyw/WorkSpace/Projects/compilers/llvm-opt-benchmark/bench/hdf5/hdf5/src/H5HFspace.c\00", align 1
@H5E_HEAP_g = external global i64, align 8
@__func__.H5HF__space_remove = private unnamed_addr constant [19 x i8] c"H5HF__space_remove\00", align 1
@H5E_CANTREMOVE_g = external global i64, align 8
@.str.8 = private unnamed_addr constant [42 x i8] c"can't remove section from heap free space\00", align 1

; Function Attrs: nounwind uwtable
define i32 @H5HF__space_remove(ptr noundef %0, ptr noundef %1) #0 {
  %3 = alloca ptr, align 8
  %4 = alloca ptr, align 8
  %5 = alloca i32, align 4
  %6 = alloca i8, align 1
  store ptr %0, ptr %3, align 8
  store ptr %1, ptr %4, align 8
  store i32 0, ptr %5, align 4
  store i8 0, ptr %6, align 1
  %7 = load ptr, ptr %3, align 8
  %8 = getelementptr inbounds %struct.H5HF_hdr_t, ptr %7, i32 0, i32 28
  %9 = load ptr, ptr %8, align 8
  %10 = load ptr, ptr %3, align 8
  %11 = getelementptr inbounds %struct.H5HF_hdr_t, ptr %10, i32 0, i32 35
  %12 = load ptr, ptr %11, align 8
  %13 = load ptr, ptr %4, align 8
  %14 = call i32 @H5FS_sect_remove(ptr noundef %9, ptr noundef %12, ptr noundef %13)
  %15 = icmp slt i32 %14, 0
  br i1 %15, label %16, label %31

16:                                               ; preds = %2
  br label %17

17:                                               ; preds = %16
  br label %18

18:                                               ; preds = %17
  br label %19

19:                                               ; preds = %18
  %20 = load i64, ptr @H5E_HEAP_g, align 8
  %21 = load i64, ptr @H5E_CANTREMOVE_g, align 8
  %22 = call i32 (ptr, ptr, i32, i64, i64, ptr, ...) @H5E_printf_stack(ptr noundef @.str, ptr noundef @__func__.H5HF__space_remove, i32 noundef 438, i64 noundef %20, i64 noundef %21, ptr noundef @.str.8)
  br label %23

23:                                               ; preds = %19
  store i8 1, ptr %6, align 1
  %24 = load i8, ptr %6, align 1
  %25 = trunc i8 %24 to i1
  %26 = zext i1 %25 to i8
  store i8 %26, ptr %6, align 1
  br label %27

27:                                               ; preds = %23
  br label %28

28:                                               ; preds = %27
  store i32 -1, ptr %5, align 4
  br label %32

29:                                               ; No predecessors!
  br label %30

30:                                               ; preds = %29
  br label %31

31:                                               ; preds = %30, %2
  br label %32

32:                                               ; preds = %31, %28
  %33 = load i32, ptr %5, align 4
  ret i32 %33
}