; Function Attrs: nounwind uwtable
define range(i32 -1, 1) i32 @H5HF__space_remove(ptr nocapture noundef readonly %0, ptr noundef %1) local_unnamed_addr #0 {
  %3 = getelementptr inbounds i8, ptr %0, i64 600
  %4 = load ptr, ptr %3, align 8
  %5 = getelementptr inbounds i8, ptr %0, i64 640
  %6 = load ptr, ptr %5, align 8
  %7 = tail call i32 @H5FS_sect_remove(ptr noundef %4, ptr noundef %6, ptr noundef %1) #4
  %8 = icmp slt i32 %7, 0
  br i1 %8, label %9, label %13

9:                                                ; preds = %2
  %10 = load i64, ptr @H5E_HEAP_g, align 8
  %11 = load i64, ptr @H5E_CANTREMOVE_g, align 8
  %12 = tail call i32 (ptr, ptr, i32, i64, i64, ptr, ...) @H5E_printf_stack(ptr noundef nonnull @.str, ptr noundef nonnull @__func__.H5HF__space_remove, i32 noundef 438, i64 noundef %10, i64 noundef %11, ptr noundef nonnull @.str.8) #4
  br label %13

13:                                               ; preds = %2, %9
  %.0 = phi i32 [ -1, %9 ], [ 0, %2 ]
  ret i32 %.0
}